{
   <insert_a_suppression_name_here>
   Memcheck:Cond
   fun:_ZN5ArenaC1Ev
   fun:_ZN10CodeBuffer21create_patch_overflowEv
   fun:_ZN5Label12add_patch_atEP10CodeBufferi
   fun:_ZN9Assembler3jccENS_9ConditionER5Labelb
   fun:_ZN25InterpreterMacroAssembler11lock_objectEP12RegisterImpl
   fun:_ZN20InterpreterGenerator11lock_methodEv
   fun:_ZN20InterpreterGenerator21generate_normal_entryEb
   fun:_ZN28AbstractInterpreterGenerator21generate_method_entryEN19AbstractInterpreter10MethodKindE
   fun:_ZN28TemplateInterpreterGenerator12generate_allEv
   fun:_ZN20InterpreterGeneratorC1EP9StubQueue
   fun:_ZN19TemplateInterpreter10initializeEv
   fun:_Z16interpreter_initv
}
{
   <insert_a_suppression_name_here>
   Memcheck:Cond
   fun:_ZN5ArenaC1Ev
   fun:_ZN10CodeBuffer21create_patch_overflowEv
   fun:_ZN5Label12add_patch_atEP10CodeBufferi
   fun:_ZN9Assembler3jmpER5Labelb
   fun:_ZN25InterpreterMacroAssembler30record_klass_in_profile_helperEP12RegisterImplS1_S1_iR5Labelb
   fun:_ZN25InterpreterMacroAssembler17profile_typecheckEP12RegisterImplS1_S1_
   fun:_ZN25InterpreterMacroAssembler17gen_subtype_checkEP12RegisterImplR5Label
   fun:_ZN13TemplateTable7aastoreEv
   fun:_ZN8Template8generateEP25InterpreterMacroAssembler
   fun:_ZN28TemplateInterpreterGenerator21generate_and_dispatchEP8Template8TosState
   fun:_ZN28TemplateInterpreterGenerator21set_vtos_entry_pointsEP8TemplateRPhS3_S3_S3_S3_S3_S3_S3_S3_
   fun:_ZN28TemplateInterpreterGenerator22set_short_entry_pointsEP8TemplateRPhS3_S3_S3_S3_S3_S3_S3_S3_
}
{
   <insert_a_suppression_name_here>
   Memcheck:Addr4
   obj:*
   obj:*
   obj:*
   fun:_ZN9JavaCalls11call_helperEP9JavaValueP12methodHandleP17JavaCallArgumentsP6Thread
   fun:_ZN2os20os_exception_wrapperEPFvP9JavaValueP12methodHandleP17JavaCallArgumentsP6ThreadES1_S3_S5_S7_
   fun:_ZN9JavaCalls4callEP9JavaValue12methodHandleP17JavaCallArgumentsP6Thread
   fun:_ZN9JavaCalls11call_staticEP9JavaValue11KlassHandleP6SymbolS4_6HandleS5_P6Thread
   fun:_ZN12NativeLookup12lookup_styleE12methodHandlePcPKcibRbP6Thread
   fun:_ZN12NativeLookup12lookup_entryE12methodHandleRbP6Thread
   fun:_ZN12NativeLookup11lookup_baseE12methodHandleRbP6Thread
   fun:_ZN12NativeLookup6lookupE12methodHandleRbP6Thread
   fun:_ZN18InterpreterRuntime19prepare_native_callEP10JavaThreadP13methodOopDesc
}
{
   <insert_a_suppression_name_here>
   Memcheck:Addr4
   obj:*
   obj:*
   obj:*
   obj:*
   obj:*
   obj:*
   obj:*
   obj:*
   fun:_ZN9JavaCalls11call_helperEP9JavaValueP12methodHandleP17JavaCallArgumentsP6Thread
   fun:_ZN2os20os_exception_wrapperEPFvP9JavaValueP12methodHandleP17JavaCallArgumentsP6ThreadES1_S3_S5_S7_
   fun:_ZN9JavaCalls4callEP9JavaValue12methodHandleP17JavaCallArgumentsP6Thread
   fun:_ZN13instanceKlass22call_class_initializerEP6Thread
}
{
   <insert_a_suppression_name_here>
   Memcheck:Addr4
   obj:*
   obj:*
   obj:*
   obj:*
   obj:*
   obj:*
   obj:*
   obj:*
   fun:_ZN9JavaCalls11call_helperEP9JavaValueP12methodHandleP17JavaCallArgumentsP6Thread
   fun:_ZN2os20os_exception_wrapperEPFvP9JavaValueP12methodHandleP17JavaCallArgumentsP6ThreadES1_S3_S5_S7_
   fun:_ZN9JavaCalls4callEP9JavaValue12methodHandleP17JavaCallArgumentsP6Thread
   fun:_ZN9JavaCalls11call_staticEP9JavaValue11KlassHandleP6SymbolS4_P6Thread
}
{
   <insert_a_suppression_name_here>
   Memcheck:Addr4
   obj:*
   obj:*
   obj:*
   obj:*
   obj:*
   obj:*
   obj:*
   fun:_ZN9JavaCalls11call_helperEP9JavaValueP12methodHandleP17JavaCallArgumentsP6Thread
   fun:_ZN2os20os_exception_wrapperEPFvP9JavaValueP12methodHandleP17JavaCallArgumentsP6ThreadES1_S3_S5_S7_
   fun:_ZN9JavaCalls4callEP9JavaValue12methodHandleP17JavaCallArgumentsP6Thread
   fun:_ZN9JavaCalls12call_specialEP9JavaValue11KlassHandleP6SymbolS4_P17JavaCallArgumentsP6Thread
   fun:_ZN10Exceptions13new_exceptionEP6ThreadP6SymbolS3_P17JavaCallArguments6HandleS6_
}
{
   <insert_a_suppression_name_here>
   Memcheck:Addr4
   obj:*
   obj:*
   obj:*
   obj:*
   obj:*
   obj:*
   obj:*
   obj:*
   obj:*
   fun:_ZN9JavaCalls11call_helperEP9JavaValueP12methodHandleP17JavaCallArgumentsP6Thread
   fun:_ZN2os20os_exception_wrapperEPFvP9JavaValueP12methodHandleP17JavaCallArgumentsP6ThreadES1_S3_S5_S7_
   fun:_ZN9JavaCalls4callEP9JavaValue12methodHandleP17JavaCallArgumentsP6Thread
}
{
   <insert_a_suppression_name_here>
   Memcheck:Addr4
   obj:*
   obj:*
   obj:*
   obj:*
   obj:*
   obj:*
   obj:*
   obj:*
   obj:*
   obj:*
   fun:_ZN9JavaCalls11call_helperEP9JavaValueP12methodHandleP17JavaCallArgumentsP6Thread
   fun:_ZN2os20os_exception_wrapperEPFvP9JavaValueP12methodHandleP17JavaCallArgumentsP6ThreadES1_S3_S5_S7_
}
{
   <insert_a_suppression_name_here>
   Memcheck:Addr4
   obj:*
   obj:*
   obj:*
   obj:*
   obj:*
   obj:*
   obj:*
   obj:*
   obj:*
   obj:*
   obj:*
   fun:_ZN9JavaCalls11call_helperEP9JavaValueP12methodHandleP17JavaCallArgumentsP6Thread
}
{
   <insert_a_suppression_name_here>
   Memcheck:Addr4
   obj:*
   obj:*
   obj:*
   obj:*
   obj:*
   obj:*
   obj:*
   obj:*
   obj:*
   obj:*
   obj:*
   obj:*
}
{
   <insert_a_suppression_name_here>
   Memcheck:Addr4
   obj:*
   obj:*
   obj:*
   obj:*
   obj:*
   obj:*
   obj:*
   fun:_ZN9JavaCalls11call_helperEP9JavaValueP12methodHandleP17JavaCallArgumentsP6Thread
   fun:_ZN2os20os_exception_wrapperEPFvP9JavaValueP12methodHandleP17JavaCallArgumentsP6ThreadES1_S3_S5_S7_
   fun:_ZN9JavaCalls4callEP9JavaValue12methodHandleP17JavaCallArgumentsP6Thread
   fun:_ZL20jni_invoke_nonstaticP7JNIEnv_P9JavaValueP8_jobject11JNICallTypeP10_jmethodIDP18JNI_ArgumentPusherP6Thread
   fun:jni_NewObject
}
{
   <insert_a_suppression_name_here>
   Memcheck:Addr4
   obj:*
   obj:*
   obj:*
   obj:*
   obj:*
   obj:*
   obj:*
   obj:*
   fun:_ZN9JavaCalls11call_helperEP9JavaValueP12methodHandleP17JavaCallArgumentsP6Thread
   fun:_ZN2os20os_exception_wrapperEPFvP9JavaValueP12methodHandleP17JavaCallArgumentsP6ThreadES1_S3_S5_S7_
   fun:_ZN9JavaCalls4callEP9JavaValue12methodHandleP17JavaCallArgumentsP6Thread
   fun:_ZL20jni_invoke_nonstaticP7JNIEnv_P9JavaValueP8_jobject11JNICallTypeP10_jmethodIDP18JNI_ArgumentPusherP6Thread
}
{
   <insert_a_suppression_name_here>
   Memcheck:Addr4
   obj:*
   obj:*
   obj:*
   obj:*
   obj:*
   obj:*
   fun:_ZN9JavaCalls11call_helperEP9JavaValueP12methodHandleP17JavaCallArgumentsP6Thread
   fun:_ZN2os20os_exception_wrapperEPFvP9JavaValueP12methodHandleP17JavaCallArgumentsP6ThreadES1_S3_S5_S7_
   fun:_ZN9JavaCalls4callEP9JavaValue12methodHandleP17JavaCallArgumentsP6Thread
   fun:_ZL20jni_invoke_nonstaticP7JNIEnv_P9JavaValueP8_jobject11JNICallTypeP10_jmethodIDP18JNI_ArgumentPusherP6Thread
   fun:jni_NewObject
   fun:JNU_NewStringPlatform
}
{
   <insert_a_suppression_name_here>
   Memcheck:Addr4
   obj:*
   obj:*
   obj:*
   obj:*
   obj:*
   fun:_ZN9JavaCalls11call_helperEP9JavaValueP12methodHandleP17JavaCallArgumentsP6Thread
   fun:_ZN2os20os_exception_wrapperEPFvP9JavaValueP12methodHandleP17JavaCallArgumentsP6ThreadES1_S3_S5_S7_
   fun:_ZN9JavaCalls4callEP9JavaValue12methodHandleP17JavaCallArgumentsP6Thread
   fun:_ZL20jni_invoke_nonstaticP7JNIEnv_P9JavaValueP8_jobject11JNICallTypeP10_jmethodIDP18JNI_ArgumentPusherP6Thread
   fun:jni_NewObject
   fun:JNU_NewStringPlatform
   fun:GetStringPlatform
}
{
   <insert_a_suppression_name_here>
   Memcheck:Addr4
   obj:*
   obj:*
   obj:*
   obj:*
   fun:_ZN9JavaCalls11call_helperEP9JavaValueP12methodHandleP17JavaCallArgumentsP6Thread
   fun:_ZN2os20os_exception_wrapperEPFvP9JavaValueP12methodHandleP17JavaCallArgumentsP6ThreadES1_S3_S5_S7_
   fun:_ZN9JavaCalls4callEP9JavaValue12methodHandleP17JavaCallArgumentsP6Thread
   fun:_ZN10Reflection6invokeE19instanceKlassHandle12methodHandle6Handleb14objArrayHandle9BasicTypeS3_bP6Thread
   fun:_ZN10Reflection18invoke_constructorEP7oopDesc14objArrayHandleP6Thread
   fun:JVM_NewInstanceFromConstructor
   fun:Java_sun_reflect_NativeConstructorAccessorImpl_newInstance0
   obj:*
}
{
   <insert_a_suppression_name_here>
   Memcheck:Addr4
   obj:*
   obj:*
   obj:*
   fun:_ZN9JavaCalls11call_helperEP9JavaValueP12methodHandleP17JavaCallArgumentsP6Thread
   fun:_ZN2os20os_exception_wrapperEPFvP9JavaValueP12methodHandleP17JavaCallArgumentsP6ThreadES1_S3_S5_S7_
   fun:_ZN9JavaCalls4callEP9JavaValue12methodHandleP17JavaCallArgumentsP6Thread
   fun:_ZN9JavaCalls12call_specialEP9JavaValue6Handle11KlassHandleP6SymbolS5_S2_S2_P6Thread
   fun:_ZN16SystemDictionary26validate_protection_domainE19instanceKlassHandle6HandleS1_P6Thread
   fun:_ZN16SystemDictionary30resolve_instance_class_or_nullEP6Symbol6HandleS2_P6Thread
   fun:_ZN16SystemDictionary15resolve_or_nullEP6Symbol6HandleS2_P6Thread
   fun:_ZN16SystemDictionary15resolve_or_failEP6Symbol6HandleS2_bP6Thread
   fun:_ZN19constantPoolOopDesc13klass_at_implE18constantPoolHandleiP6Thread
}
{
   <insert_a_suppression_name_here>
   Memcheck:Addr4
   obj:*
   obj:*
   obj:*
   fun:_ZN9JavaCalls11call_helperEP9JavaValueP12methodHandleP17JavaCallArgumentsP6Thread
   fun:_ZN2os20os_exception_wrapperEPFvP9JavaValueP12methodHandleP17JavaCallArgumentsP6ThreadES1_S3_S5_S7_
   fun:_ZN9JavaCalls4callEP9JavaValue12methodHandleP17JavaCallArgumentsP6Thread
   fun:_ZN10Reflection6invokeE19instanceKlassHandle12methodHandle6Handleb14objArrayHandle9BasicTypeS3_bP6Thread
   fun:_ZN10Reflection18invoke_constructorEP7oopDesc14objArrayHandleP6Thread
   fun:JVM_NewInstanceFromConstructor
   fun:Java_sun_reflect_NativeConstructorAccessorImpl_newInstance0
   obj:*
   obj:*
}
{
   <insert_a_suppression_name_here>
   Memcheck:Addr4
   obj:*
   obj:*
   obj:*
   obj:*
   obj:*
   fun:_ZN9JavaCalls11call_helperEP9JavaValueP12methodHandleP17JavaCallArgumentsP6Thread
   fun:_ZN2os20os_exception_wrapperEPFvP9JavaValueP12methodHandleP17JavaCallArgumentsP6ThreadES1_S3_S5_S7_
   fun:_ZN9JavaCalls4callEP9JavaValue12methodHandleP17JavaCallArgumentsP6Thread
   fun:_ZN9JavaCalls12call_virtualEP9JavaValue11KlassHandleP6SymbolS4_P17JavaCallArgumentsP6Thread
   fun:_ZN9JavaCalls12call_virtualEP9JavaValue6Handle11KlassHandleP6SymbolS5_S2_P6Thread
   fun:_ZN16SystemDictionary19load_instance_classEP6Symbol6HandleP6Thread
   fun:_ZN16SystemDictionary30resolve_instance_class_or_nullEP6Symbol6HandleS2_P6Thread
}
{
   <insert_a_suppression_name_here>
   Memcheck:Addr4
   obj:*
   obj:*
   fun:_ZN9JavaCalls11call_helperEP9JavaValueP12methodHandleP17JavaCallArgumentsP6Thread
   fun:_ZN2os20os_exception_wrapperEPFvP9JavaValueP12methodHandleP17JavaCallArgumentsP6ThreadES1_S3_S5_S7_
   fun:_ZN9JavaCalls4callEP9JavaValue12methodHandleP17JavaCallArgumentsP6Thread
   fun:_ZN10Reflection6invokeE19instanceKlassHandle12methodHandle6Handleb14objArrayHandle9BasicTypeS3_bP6Thread
   fun:_ZN10Reflection18invoke_constructorEP7oopDesc14objArrayHandleP6Thread
   fun:JVM_NewInstanceFromConstructor
   fun:Java_sun_reflect_NativeConstructorAccessorImpl_newInstance0
   obj:*
   obj:*
   obj:*
}
{
   <insert_a_suppression_name_here>
   Memcheck:Addr4
   obj:*
   obj:*
}
{
   <insert_a_suppression_name_here>
   Memcheck:Addr4
   obj:*
   obj:*
   obj:*
   fun:_ZN9JavaCalls11call_helperEP9JavaValueP12methodHandleP17JavaCallArgumentsP6Thread
   fun:_ZN2os20os_exception_wrapperEPFvP9JavaValueP12methodHandleP17JavaCallArgumentsP6ThreadES1_S3_S5_S7_
   fun:_ZN9JavaCalls4callEP9JavaValue12methodHandleP17JavaCallArgumentsP6Thread
   fun:_ZL20jni_invoke_nonstaticP7JNIEnv_P9JavaValueP8_jobject11JNICallTypeP10_jmethodIDP18JNI_ArgumentPusherP6Thread
   fun:jni_CallObjectMethod
   fun:JNU_GetStringPlatformChars
   fun:Java_java_lang_ClassLoader_00024NativeLibrary_load
   obj:*
   obj:*
}
{
   <insert_a_suppression_name_here>
   Memcheck:Addr4
   obj:*
}
{
   <insert_a_suppression_name_here>
   Memcheck:Addr4
   obj:*
   obj:*
   obj:*
}
{
   <insert_a_suppression_name_here>
   Memcheck:Free
   fun:free
   fun:__libc_freeres
   fun:_vgnU_freeres
   fun:_Exit
}
{
   <insert_a_suppression_name_here>
   Memcheck:Leak
   match-leak-kinds: reachable
   fun:malloc
   fun:default_malloc_ex
   fun:CRYPTO_malloc
   fun:def_get_class
   fun:int_new_ex_data
   fun:CRYPTO_new_ex_data
   fun:RSA_new_method
   fun:RSA_new
   fun:NH_RSA_pubkey_create
   fun:verify_rsa
   fun:NHIX_verify_signature
   fun:verify
}
{
   <insert_a_suppression_name_here>
   Memcheck:Leak
   match-leak-kinds: reachable
   fun:malloc
   fun:default_malloc_ex
   fun:CRYPTO_malloc
   fun:lh_insert
   fun:def_get_class
   fun:int_new_ex_data
   fun:CRYPTO_new_ex_data
   fun:RSA_new_method
   fun:RSA_new
   fun:NH_RSA_pubkey_create
   fun:verify_rsa
   fun:NHIX_verify_signature
}
{
   <insert_a_suppression_name_here>
   Memcheck:Leak
   match-leak-kinds: reachable
   fun:malloc
   fun:NH_create_mutex
   fun:NH_freight_container
   fun:NH_new_parser
   fun:NH_parse_certificate
   fun:Java_org_crypthing_security_x509_NharuX509Certificate_nhixParseCertificate
   obj:*
   obj:*
   obj:*
   obj:*
   obj:*
   obj:*
}
{
   <insert_a_suppression_name_here>
   Memcheck:Leak
   match-leak-kinds: reachable
   fun:malloc
   fun:NH_create_mutex
   fun:NH_parse_certificate
   fun:Java_org_crypthing_security_x509_NharuX509Certificate_nhixParseCertificate
   obj:*
   obj:*
   obj:*
   obj:*
   obj:*
   obj:*
   obj:*
   obj:*
}
{
   <insert_a_suppression_name_here>
   Memcheck:Leak
   match-leak-kinds: reachable
   fun:malloc
   fun:Java_org_crypthing_security_x509_NharuX509Certificate_nhixParseCertificate
   obj:*
   obj:*
   obj:*
   obj:*
   obj:*
   obj:*
   obj:*
   obj:*
   obj:*
   obj:*
}
{
   <insert_a_suppression_name_here>
   Memcheck:Leak
   match-leak-kinds: reachable
   fun:malloc
   fun:_ZN2os6mallocEjtPh
   fun:_ZN13instanceKlass14get_jmethod_idE19instanceKlassHandle12methodHandle
   fun:_ZN13methodOopDesc10jmethod_idEv
   fun:_ZL13get_method_idP7JNIEnv_P7_jclassPKcS4_bP6Thread
   fun:jni_GetMethodID
   fun:sign_callback
   fun:cms_sd_sign
   fun:Java_org_crypthing_security_cms_CMSSignedDataBuilder_nhcmsSign
   obj:*
   obj:*
   obj:*
}
{
   <insert_a_suppression_name_here>
   Memcheck:Leak
   match-leak-kinds: reachable
   fun:malloc
   fun:_ZN2os6mallocEjtPh
   fun:_Z12AllocateHeapjtPhN17AllocFailStrategy13AllocFailEnumE
   fun:_ZN13instanceKlass23set_cached_itable_indexEji
   fun:_ZL20jni_invoke_nonstaticP7JNIEnv_P9JavaValueP8_jobject11JNICallTypeP10_jmethodIDP18JNI_ArgumentPusherP6Thread
   fun:jni_CallLongMethod
   fun:sign_callback
   fun:cms_sd_sign
   fun:Java_org_crypthing_security_cms_CMSSignedDataBuilder_nhcmsSign
   obj:*
   obj:*
   obj:*
}
{
   <insert_a_suppression_name_here>
   Memcheck:Leak
   match-leak-kinds: reachable
   fun:malloc
   fun:_ZN2os6mallocEjtPh
   fun:_ZN13instanceKlass14get_jmethod_idE19instanceKlassHandle12methodHandle
   fun:_ZN13methodOopDesc10jmethod_idEv
   fun:_ZL13get_method_idP7JNIEnv_P7_jclassPKcS4_bP6Thread
   fun:jni_GetMethodID
   fun:decrypt_callback
   fun:cms_env_decrypt
   fun:Java_org_crypthing_security_cms_CMSEnvelopedData_nhcmsDecrypt
   obj:*
   obj:*
   obj:*
}
{
   <insert_a_suppression_name_here>
   Memcheck:Leak
   match-leak-kinds: reachable
   fun:malloc
   fun:_ZN2os6mallocEjtPh
   fun:_Z12AllocateHeapjtPhN17AllocFailStrategy13AllocFailEnumE
   fun:_ZN13instanceKlass23set_cached_itable_indexEji
   fun:_ZL20jni_invoke_nonstaticP7JNIEnv_P9JavaValueP8_jobject11JNICallTypeP10_jmethodIDP18JNI_ArgumentPusherP6Thread
   fun:jni_CallLongMethod
   fun:decrypt_callback
   fun:cms_env_decrypt
   fun:Java_org_crypthing_security_cms_CMSEnvelopedData_nhcmsDecrypt
   obj:*
   obj:*
   obj:*
}
{
   <insert_a_suppression_name_here>
   Memcheck:Leak
   match-leak-kinds: reachable
   fun:malloc
   fun:default_malloc_ex
   fun:CRYPTO_malloc
   fun:sk_new
   fun:sk_new_null
   fun:def_get_class
   fun:int_new_ex_data
   fun:CRYPTO_new_ex_data
   fun:RSA_new_method
   fun:RSA_new
   fun:NH_RSA_pubkey_create
   fun:verify_rsa
}
{
   <insert_a_suppression_name_here>
   Memcheck:Leak
   match-leak-kinds: reachable
   fun:malloc
   fun:_ZN2os6mallocEjtPh
   fun:_ZN11ResourceObjnwEjNS_15allocation_typeEt
   fun:_ZN23SignatureHandlerLibrary10initializeEv
   fun:_ZN23SignatureHandlerLibrary3addE12methodHandle
   fun:_ZN18InterpreterRuntime19prepare_native_callEP10JavaThreadP13methodOopDesc
   obj:*
   obj:*
   obj:*
   fun:_ZN9JavaCalls11call_helperEP9JavaValueP12methodHandleP17JavaCallArgumentsP6Thread
   fun:_ZN2os20os_exception_wrapperEPFvP9JavaValueP12methodHandleP17JavaCallArgumentsP6ThreadES1_S3_S5_S7_
   fun:_ZN9JavaCalls4callEP9JavaValue12methodHandleP17JavaCallArgumentsP6Thread
}
{
   <insert_a_suppression_name_here>
   Memcheck:Leak
   match-leak-kinds: reachable
   fun:malloc
   fun:alloc_wagon
   fun:NH_freight_container
   fun:NH_new_parser
   fun:NH_parse_certificate
   fun:Java_org_crypthing_security_x509_NharuX509Certificate_nhixParseCertificate
   obj:*
   obj:*
   obj:*
   obj:*
   obj:*
   obj:*
}
{
   <insert_a_suppression_name_here>
   Memcheck:Leak
   match-leak-kinds: reachable
   fun:malloc
   fun:NH_freight_container
   fun:NH_new_parser
   fun:NH_parse_certificate
   fun:Java_org_crypthing_security_x509_NharuX509Certificate_nhixParseCertificate
   obj:*
   obj:*
   obj:*
   obj:*
   obj:*
   obj:*
   obj:*
}
{
   <insert_a_suppression_name_here>
   Memcheck:Leak
   match-leak-kinds: reachable
   fun:malloc
   fun:_ZN2os6mallocEjtPh
   fun:_ZN13instanceKlass14get_jmethod_idE19instanceKlassHandle12methodHandle
   fun:_ZN13methodOopDesc10jmethod_idEv
   fun:_ZL13get_method_idP7JNIEnv_P7_jclassPKcS4_bP6Thread
   fun:jni_GetMethodID
   fun:Java_org_crypthing_security_cms_CMSEnvelopedData_getRID
   obj:*
   obj:*
   obj:*
   obj:*
   obj:*
}
{
   <insert_a_suppression_name_here>
   Memcheck:Leak
   match-leak-kinds: reachable
   fun:malloc
   fun:NH_create_mutex
   fun:NH_freight_container
   fun:NH_new_parser
   fun:NH_parse_certificate
   fun:cms_sd_get_cert
   fun:Java_org_crypthing_security_cms_CMSSignedData_nhcmsGetSignerCertificate
   obj:*
   obj:*
   obj:*
   obj:*
   obj:*
}
{
   <insert_a_suppression_name_here>
   Memcheck:Leak
   match-leak-kinds: reachable
   fun:malloc
   fun:NH_create_mutex
   fun:NH_parse_certificate
   fun:cms_sd_get_cert
   fun:Java_org_crypthing_security_cms_CMSSignedData_nhcmsGetSignerCertificate
   obj:*
   obj:*
   obj:*
   obj:*
   obj:*
   obj:*
   obj:*
}
{
   <insert_a_suppression_name_here>
   Memcheck:Leak
   match-leak-kinds: reachable
   fun:malloc
   fun:nharu_to_java_handler
   fun:Java_org_crypthing_security_cms_CMSSignedData_nhcmsGetSignerCertificate
   obj:*
   obj:*
   obj:*
   obj:*
   obj:*
   obj:*
   obj:*
   obj:*
   fun:_ZN9JavaCalls11call_helperEP9JavaValueP12methodHandleP17JavaCallArgumentsP6Thread
}
{
   <insert_a_suppression_name_here>
   Memcheck:Leak
   match-leak-kinds: reachable
   fun:malloc
   fun:NH_create_mutex
   fun:NH_parse_certificate
   fun:Java_org_crypthing_security_x509_NharuX509Certificate_nhixParseCertificate
   obj:*
   obj:*
   obj:*
   obj:*
   obj:*
   obj:*
   obj:*
   fun:_ZN9JavaCalls11call_helperEP9JavaValueP12methodHandleP17JavaCallArgumentsP6Thread
}
{
   <insert_a_suppression_name_here>
   Memcheck:Leak
   match-leak-kinds: reachable
   fun:malloc
   fun:Java_org_crypthing_security_x509_NharuX509Certificate_nhixParseCertificate
   obj:*
   obj:*
   obj:*
   obj:*
   obj:*
   obj:*
   obj:*
   fun:_ZN9JavaCalls11call_helperEP9JavaValueP12methodHandleP17JavaCallArgumentsP6Thread
   fun:_ZN2os20os_exception_wrapperEPFvP9JavaValueP12methodHandleP17JavaCallArgumentsP6ThreadES1_S3_S5_S7_
   fun:_ZN9JavaCalls4callEP9JavaValue12methodHandleP17JavaCallArgumentsP6Thread
}
{
   <insert_a_suppression_name_here>
   Memcheck:Leak
   match-leak-kinds: reachable
   fun:malloc
   fun:Java_org_crypthing_security_x509_NharuX509Certificate_nhixParseCertificate
   obj:*
   obj:*
   obj:*
   obj:*
   obj:*
   obj:*
   obj:*
   obj:*
   fun:_ZN9JavaCalls11call_helperEP9JavaValueP12methodHandleP17JavaCallArgumentsP6Thread
   fun:_ZN2os20os_exception_wrapperEPFvP9JavaValueP12methodHandleP17JavaCallArgumentsP6ThreadES1_S3_S5_S7_
}
{
   <insert_a_suppression_name_here>
   Memcheck:Leak
   match-leak-kinds: reachable
   fun:malloc
   fun:alloc_wagon
   fun:NH_freight_container
   fun:NH_new_parser
   fun:NH_parse_certificate
   fun:cms_sd_get_cert
   fun:Java_org_crypthing_security_cms_CMSSignedData_nhcmsGetSignerCertificate
   obj:*
   obj:*
   obj:*
   obj:*
   obj:*
}
{
   <insert_a_suppression_name_here>
   Memcheck:Leak
   match-leak-kinds: reachable
   fun:malloc
   fun:NH_freight_container
   fun:NH_new_parser
   fun:NH_parse_certificate
   fun:cms_sd_get_cert
   fun:Java_org_crypthing_security_cms_CMSSignedData_nhcmsGetSignerCertificate
   obj:*
   obj:*
   obj:*
   obj:*
   obj:*
   obj:*
}
{
   <insert_a_suppression_name_here>
   Memcheck:Leak
   match-leak-kinds: reachable
   fun:malloc
   fun:default_malloc_ex
   fun:CRYPTO_malloc
   fun:lh_new
   fun:def_get_class
   fun:int_new_ex_data
   fun:CRYPTO_new_ex_data
   fun:RSA_new_method
   fun:RSA_new
   fun:NH_RSA_pubkey_create
   fun:verify_rsa
   fun:NHIX_verify_signature
}
{
   <insert_a_suppression_name_here>
   Memcheck:Leak
   match-leak-kinds: reachable
   fun:malloc
   fun:_ZN2os6mallocEjtPh
   fun:_ZN13instanceKlass14get_jmethod_idE19instanceKlassHandle12methodHandle
   fun:_ZN13methodOopDesc10jmethod_idEv
   fun:_ZL13get_method_idP7JNIEnv_P7_jclassPKcS4_bP6Thread
   fun:jni_GetMethodID
   fun:get_extensions_oids
   fun:Java_org_crypthing_security_x509_NharuX509Certificate_nhixGetCriticalExtensionOIDs
   obj:*
   obj:*
   obj:*
   obj:*
}
{
   <insert_a_suppression_name_here>
   Memcheck:Leak
   match-leak-kinds: reachable
   fun:malloc
   fun:_ZN2os6mallocEjtPh
   fun:_ZN13instanceKlass14get_jmethod_idE19instanceKlassHandle12methodHandle
   fun:_ZN13methodOopDesc10jmethod_idEv
   fun:_ZL13get_method_idP7JNIEnv_P7_jclassPKcS4_bP6Thread
   fun:jni_GetStaticMethodID
   fun:JNI_OnLoad
   fun:Java_java_lang_ClassLoader_00024NativeLibrary_load
   obj:*
   obj:*
   obj:*
   obj:*
}
{
   <insert_a_suppression_name_here>
   Memcheck:Leak
   match-leak-kinds: reachable
   fun:malloc
   fun:_ZN2os6mallocEjtPh
   fun:_ZN13instanceKlass14get_jmethod_idE19instanceKlassHandle12methodHandle
   fun:_ZN13methodOopDesc10jmethod_idEv
   fun:_ZL13get_method_idP7JNIEnv_P7_jclassPKcS4_bP6Thread
   fun:jni_GetMethodID
   fun:Java_org_crypthing_security_x509_NharuX509CRL_nhixGetRevokedCertificates
   obj:*
   obj:*
   obj:*
   obj:*
   obj:*
}
{
   <insert_a_suppression_name_here>
   Memcheck:Leak
   match-leak-kinds: reachable
   fun:malloc
   fun:_ZN2os6mallocEjtPh
   fun:_ZN13instanceKlass14get_jmethod_idE19instanceKlassHandle12methodHandle
   fun:_ZN13methodOopDesc10jmethod_idEv
   fun:_ZL13get_method_idP7JNIEnv_P7_jclassPKcS4_bP6Thread
   fun:jni_GetMethodID
   fun:Java_java_net_Inet4Address_init
   obj:*
   obj:*
   obj:*
   fun:_ZN9JavaCalls11call_helperEP9JavaValueP12methodHandleP17JavaCallArgumentsP6Thread
   fun:_ZN2os20os_exception_wrapperEPFvP9JavaValueP12methodHandleP17JavaCallArgumentsP6ThreadES1_S3_S5_S7_
}
{
   <insert_a_suppression_name_here>
   Memcheck:Leak
   match-leak-kinds: reachable
   fun:malloc
   fun:NH_parse_certificate
   fun:Java_org_crypthing_security_x509_NharuX509Certificate_nhixParseCertificate
   obj:*
   obj:*
   obj:*
   obj:*
   obj:*
   obj:*
   obj:*
   obj:*
   obj:*
}
{
   <insert_a_suppression_name_here>
   Memcheck:Leak
   match-leak-kinds: reachable
   fun:malloc
   fun:realloc
   fun:initLocalIfs
   fun:JNI_OnLoad
   fun:Java_java_lang_ClassLoader_00024NativeLibrary_load
   obj:*
   obj:*
   obj:*
   obj:*
   obj:*
   obj:*
   obj:*
}
{
   <insert_a_suppression_name_here>
   Memcheck:Leak
   match-leak-kinds: reachable
   fun:malloc
   fun:NH_new_parser
   fun:NH_parse_certificate
   fun:Java_org_crypthing_security_x509_NharuX509Certificate_nhixParseCertificate
   obj:*
   obj:*
   obj:*
   obj:*
   obj:*
   obj:*
   obj:*
   obj:*
}
{
   <insert_a_suppression_name_here>
   Memcheck:Leak
   match-leak-kinds: reachable
   fun:malloc
   fun:newEntry
   fun:ZIP_GetEntry
   fun:Java_java_util_zip_ZipFile_getEntry
   obj:*
   obj:*
   obj:*
   obj:*
   obj:*
   obj:*
   obj:*
   obj:*
}
{
   <insert_a_suppression_name_here>
   Memcheck:Leak
   match-leak-kinds: reachable
   fun:calloc
   fun:Java_java_util_zip_Inflater_init
   obj:*
   obj:*
   obj:*
   obj:*
   obj:*
   obj:*
   obj:*
   obj:*
   obj:*
   obj:*
}
{
   <insert_a_suppression_name_here>
   Memcheck:Leak
   match-leak-kinds: reachable
   fun:malloc
   fun:_ZN2os6mallocEjtPh
   fun:_ZN13instanceKlass14get_jmethod_idE19instanceKlassHandle12methodHandle
   fun:_ZN13methodOopDesc10jmethod_idEv
   fun:_ZL13get_method_idP7JNIEnv_P7_jclassPKcS4_bP6Thread
   fun:jni_GetMethodID
   fun:JNU_NewObjectByName
   fun:Java_java_io_FileSystem_getFileSystem
   obj:*
   obj:*
   obj:*
   fun:_ZN9JavaCalls11call_helperEP9JavaValueP12methodHandleP17JavaCallArgumentsP6Thread
}
{
   <insert_a_suppression_name_here>
   Memcheck:Leak
   match-leak-kinds: reachable
   fun:malloc
   fun:_ZN2os6mallocEjtPh
   fun:_ZN8CodeBlob12set_oop_mapsEP9OopMapSet
   fun:_ZN8CodeBlobC2EPKcP10CodeBufferiiiiP9OopMapSet
   fun:_ZN7nmethodC1EP13methodOopDesciiP11CodeOffsetsP10CodeBufferiiiP9OopMapSet
   fun:_ZN7nmethod18new_native_nmethodE12methodHandleiP10CodeBufferiiiiiP9OopMapSet
   fun:_ZN13SharedRuntime23generate_native_wrapperEP14MacroAssembler12methodHandleiP9BasicTypeP9VMRegPairS3_
   fun:_ZN21AdapterHandlerLibrary21create_native_wrapperE12methodHandlei
   fun:_ZN13CompileBroker14compile_methodE12methodHandleiiS0_iPKcP6Thread
   fun:_ZN16SimpleCompPolicy23method_invocation_eventE12methodHandleP10JavaThread
   fun:_ZN19NonTieredCompPolicy5eventE12methodHandleS0_ii9CompLevelP7nmethodP10JavaThread
   fun:_ZN18InterpreterRuntime32frequency_counter_overflow_innerEP10JavaThreadPh
}
{
   <insert_a_suppression_name_here>
   Memcheck:Leak
   match-leak-kinds: reachable
   fun:malloc
   fun:_ZN2os6mallocEjtPh
   fun:_ZN13instanceKlass14get_jmethod_idE19instanceKlassHandle12methodHandle
   fun:_ZN13methodOopDesc10jmethod_idEv
   fun:_ZL13get_method_idP7JNIEnv_P7_jclassPKcS4_bP6Thread
   fun:jni_GetMethodID
   fun:Java_java_net_Inet6Address_init
   obj:*
   obj:*
   obj:*
   fun:_ZN9JavaCalls11call_helperEP9JavaValueP12methodHandleP17JavaCallArgumentsP6Thread
   fun:_ZN2os20os_exception_wrapperEPFvP9JavaValueP12methodHandleP17JavaCallArgumentsP6ThreadES1_S3_S5_S7_
}
{
   <insert_a_suppression_name_here>
   Memcheck:Leak
   match-leak-kinds: reachable
   fun:malloc
   fun:NH_create_mutex
   fun:NH_freight_container
   fun:NH_new_parser
   fun:NH_parse_certificate
   fun:Java_org_crypthing_security_cms_CMSSignedData_nhcmsGetCertificates
   obj:*
   obj:*
   obj:*
   obj:*
   obj:*
   obj:*
}
{
   <insert_a_suppression_name_here>
   Memcheck:Leak
   match-leak-kinds: reachable
   fun:malloc
   fun:NH_create_mutex
   fun:NH_parse_certificate
   fun:Java_org_crypthing_security_cms_CMSSignedData_nhcmsGetCertificates
   obj:*
   obj:*
   obj:*
   obj:*
   obj:*
   obj:*
   fun:_ZN9JavaCalls11call_helperEP9JavaValueP12methodHandleP17JavaCallArgumentsP6Thread
   fun:_ZN2os20os_exception_wrapperEPFvP9JavaValueP12methodHandleP17JavaCallArgumentsP6ThreadES1_S3_S5_S7_
}
{
   <insert_a_suppression_name_here>
   Memcheck:Leak
   match-leak-kinds: reachable
   fun:malloc
   fun:nharu_to_java_handler
   fun:Java_org_crypthing_security_cms_CMSSignedData_nhcmsGetCertificates
   obj:*
   obj:*
   obj:*
   obj:*
   obj:*
   obj:*
   fun:_ZN9JavaCalls11call_helperEP9JavaValueP12methodHandleP17JavaCallArgumentsP6Thread
   fun:_ZN2os20os_exception_wrapperEPFvP9JavaValueP12methodHandleP17JavaCallArgumentsP6ThreadES1_S3_S5_S7_
   fun:_ZN9JavaCalls4callEP9JavaValue12methodHandleP17JavaCallArgumentsP6Thread
}
{
   <insert_a_suppression_name_here>
   Memcheck:Leak
   match-leak-kinds: reachable
   fun:malloc
   fun:_ZN2os6mallocEjtPh
   fun:_ZN13instanceKlass14get_jmethod_idE19instanceKlassHandle12methodHandle
   fun:_ZN13methodOopDesc10jmethod_idEv
   fun:_ZL13get_method_idP7JNIEnv_P7_jclassPKcS4_bP6Thread
   fun:jni_GetStaticMethodID
   fun:make_freak_list
   fun:Java_org_crypthing_security_x509_NharuX509Certificate_nhixGetSubjectAltNames
   obj:*
   obj:*
   obj:*
   obj:*
}
{
   <insert_a_suppression_name_here>
   Memcheck:Leak
   match-leak-kinds: reachable
   fun:malloc
   fun:_ZN2os6mallocEjtPh
   fun:_ZN13instanceKlass14get_jmethod_idE19instanceKlassHandle12methodHandle
   fun:_ZN13methodOopDesc10jmethod_idEv
   fun:_ZL13get_method_idP7JNIEnv_P7_jclassPKcS4_bP6Thread
   fun:jni_GetMethodID
   fun:Java_org_crypthing_security_x509_NharuCRLEntry_nhixGetExtensions
   obj:*
   obj:*
   obj:*
   obj:*
   obj:*
}
{
   <insert_a_suppression_name_here>
   Memcheck:Leak
   match-leak-kinds: reachable
   fun:malloc
   fun:_ZN2os6mallocEjtPh
   fun:_ZN8CHeapObjILt1536EEnwEjPh
   fun:_ZN13CompileBroker19create_compile_taskEP12CompileQueuei12methodHandleiiS2_iPKcb
   fun:_ZN13CompileBroker19compile_method_baseE12methodHandleiiS0_iPKcP6Thread
   fun:_ZN13CompileBroker14compile_methodE12methodHandleiiS0_iPKcP6Thread
   fun:_ZN16SimpleCompPolicy23method_invocation_eventE12methodHandleP10JavaThread
   fun:_ZN19NonTieredCompPolicy5eventE12methodHandleS0_ii9CompLevelP7nmethodP10JavaThread
   fun:_ZN18InterpreterRuntime32frequency_counter_overflow_innerEP10JavaThreadPh
   fun:_ZN18InterpreterRuntime26frequency_counter_overflowEP10JavaThreadPh
   obj:*
   obj:*
}
{
   <insert_a_suppression_name_here>
   Memcheck:Leak
   match-leak-kinds: reachable
   fun:malloc
   fun:_ZN2os6mallocEjtPh
   fun:_ZN13instanceKlass14get_jmethod_idE19instanceKlassHandle12methodHandle
   fun:_ZN13methodOopDesc10jmethod_idEv
   fun:_ZL13get_method_idP7JNIEnv_P7_jclassPKcS4_bP6Thread
   fun:jni_GetMethodID
   fun:Java_org_crypthing_security_x509_NharuX509Certificate_nhixGetExtendedKeyUsage
   obj:*
   obj:*
   obj:*
   obj:*
   obj:*
}
{
   <insert_a_suppression_name_here>
   Memcheck:Leak
   match-leak-kinds: reachable
   fun:malloc
   fun:NH_parse_certificate
   fun:cms_sd_get_cert
   fun:Java_org_crypthing_security_cms_CMSSignedData_nhcmsGetSignerCertificate
   obj:*
   obj:*
   obj:*
   obj:*
   obj:*
   obj:*
   obj:*
   obj:*
}
{
   <insert_a_suppression_name_here>
   Memcheck:Leak
   match-leak-kinds: reachable
   fun:malloc
   fun:NH_new_parser
   fun:NH_parse_certificate
   fun:cms_sd_get_cert
   fun:Java_org_crypthing_security_cms_CMSSignedData_nhcmsGetSignerCertificate
   obj:*
   obj:*
   obj:*
   obj:*
   obj:*
   obj:*
   obj:*
}
{
   <insert_a_suppression_name_here>
   Memcheck:Leak
   match-leak-kinds: reachable
   fun:malloc
   fun:_ZN2os6mallocEjtPh
   fun:_ZN13instanceKlass14get_jmethod_idE19instanceKlassHandle12methodHandle
   fun:_ZN13methodOopDesc10jmethod_idEv
   fun:_ZL13get_method_idP7JNIEnv_P7_jclassPKcS4_bP6Thread
   fun:jni_GetMethodID
   fun:_ZL29initializeDirectBufferSupportP7JNIEnv_P10JavaThread
   fun:jni_NewDirectByteBuffer
   fun:Perf_CreateLong
   obj:*
   obj:*
   obj:*
}
{
   <insert_a_suppression_name_here>
   Memcheck:Leak
   match-leak-kinds: reachable
   fun:malloc
   fun:alloc_wagon
   fun:NH_freight_container
   fun:NH_new_parser
   fun:NH_parse_certificate
   fun:Java_org_crypthing_security_cms_CMSSignedData_nhcmsGetCertificates
   obj:*
   obj:*
   obj:*
   obj:*
   obj:*
   obj:*
}
{
   <insert_a_suppression_name_here>
   Memcheck:Leak
   match-leak-kinds: reachable
   fun:malloc
   fun:NH_parse_certificate
   fun:Java_org_crypthing_security_x509_NharuX509Certificate_nhixParseCertificate
   obj:*
   obj:*
   obj:*
   obj:*
   obj:*
   obj:*
   obj:*
   fun:_ZN9JavaCalls11call_helperEP9JavaValueP12methodHandleP17JavaCallArgumentsP6Thread
   fun:_ZN2os20os_exception_wrapperEPFvP9JavaValueP12methodHandleP17JavaCallArgumentsP6ThreadES1_S3_S5_S7_
}
{
   <insert_a_suppression_name_here>
   Memcheck:Leak
   match-leak-kinds: reachable
   fun:malloc
   fun:NH_parse_certificate
   fun:Java_org_crypthing_security_x509_NharuX509Certificate_nhixParseCertificate
   obj:*
   obj:*
   obj:*
   obj:*
   obj:*
   obj:*
   obj:*
   obj:*
   fun:_ZN9JavaCalls11call_helperEP9JavaValueP12methodHandleP17JavaCallArgumentsP6Thread
}
{
   <insert_a_suppression_name_here>
   Memcheck:Leak
   match-leak-kinds: reachable
   fun:malloc
   fun:NH_new_parser
   fun:NH_parse_certificate
   fun:Java_org_crypthing_security_x509_NharuX509Certificate_nhixParseCertificate
   obj:*
   obj:*
   obj:*
   obj:*
   obj:*
   obj:*
   obj:*
   fun:_ZN9JavaCalls11call_helperEP9JavaValueP12methodHandleP17JavaCallArgumentsP6Thread
}
{
   <insert_a_suppression_name_here>
   Memcheck:Leak
   match-leak-kinds: reachable
   fun:calloc
   fun:initLoopbackRoutes
   fun:initLocalAddrTable
   fun:JNI_OnLoad
   fun:Java_java_lang_ClassLoader_00024NativeLibrary_load
   obj:*
   obj:*
   obj:*
   obj:*
   obj:*
   obj:*
   obj:*
}
{
   <insert_a_suppression_name_here>
   Memcheck:Leak
   match-leak-kinds: reachable
   fun:malloc
   fun:NH_freight_container
   fun:NH_new_parser
   fun:NH_parse_certificate
   fun:Java_org_crypthing_security_cms_CMSSignedData_nhcmsGetCertificates
   obj:*
   obj:*
   obj:*
   obj:*
   obj:*
   obj:*
   fun:_ZN9JavaCalls11call_helperEP9JavaValueP12methodHandleP17JavaCallArgumentsP6Thread
}
{
   <insert_a_suppression_name_here>
   Memcheck:Leak
   match-leak-kinds: reachable
   fun:malloc
   fun:_ZN2os6mallocEjtPh
   fun:_ZN20GenericGrowableArray12raw_allocateEi
   fun:_ZN23SignatureHandlerLibrary3addE12methodHandle
   fun:_ZN18InterpreterRuntime19prepare_native_callEP10JavaThreadP13methodOopDesc
   obj:*
   obj:*
   obj:*
   obj:*
   obj:*
   obj:*
   obj:*
}
{
   <insert_a_suppression_name_here>
   Memcheck:Leak
   match-leak-kinds: possible
   fun:malloc
   fun:_ZN2os6mallocEjtPh
   fun:_ZN9ParkEventnwEj
   fun:_ZN9ParkEvent8AllocateEP6Thread
   fun:_ZN6ThreadC2Ev
   fun:_ZN11NamedThreadC2Ev
   fun:_ZN12GCTaskThreadC1EP13GCTaskManagerjj
   fun:_ZN13GCTaskManager10initializeEv
   fun:_ZN20ParallelScavengeHeap10initializeEv
   fun:_ZN8Universe15initialize_heapEv
   fun:_Z13universe_initv
   fun:_Z12init_globalsv
}
{
   <insert_a_suppression_name_here>
   Memcheck:Leak
   match-leak-kinds: reachable
   fun:malloc
   fun:NH_parse_certificate
   fun:Java_org_crypthing_security_cms_CMSSignedData_nhcmsGetCertificates
   obj:*
   obj:*
   obj:*
   obj:*
   obj:*
   obj:*
   fun:_ZN9JavaCalls11call_helperEP9JavaValueP12methodHandleP17JavaCallArgumentsP6Thread
   fun:_ZN2os20os_exception_wrapperEPFvP9JavaValueP12methodHandleP17JavaCallArgumentsP6ThreadES1_S3_S5_S7_
   fun:_ZN9JavaCalls4callEP9JavaValue12methodHandleP17JavaCallArgumentsP6Thread
}
{
   <insert_a_suppression_name_here>
   Memcheck:Leak
   match-leak-kinds: reachable
   fun:malloc
   fun:NH_new_parser
   fun:NH_parse_certificate
   fun:Java_org_crypthing_security_cms_CMSSignedData_nhcmsGetCertificates
   obj:*
   obj:*
   obj:*
   obj:*
   obj:*
   obj:*
   fun:_ZN9JavaCalls11call_helperEP9JavaValueP12methodHandleP17JavaCallArgumentsP6Thread
   fun:_ZN2os20os_exception_wrapperEPFvP9JavaValueP12methodHandleP17JavaCallArgumentsP6ThreadES1_S3_S5_S7_
}
{
   <insert_a_suppression_name_here>
   Memcheck:Leak
   match-leak-kinds: reachable
   fun:malloc
   fun:_ZN2os6mallocEjtPh
   fun:Unsafe_AllocateMemory
   obj:*
   obj:*
   obj:*
   obj:*
   obj:*
   obj:*
   obj:*
   obj:*
   obj:*
}
{
   <insert_a_suppression_name_here>
   Memcheck:Leak
   match-leak-kinds: reachable
   fun:malloc
   fun:_ZN2os6mallocEjtPh
   fun:_Z12AllocateHeapjtPhN17AllocFailStrategy13AllocFailEnumE
   fun:_ZN9HashtableIP12klassOopDescLt256EE9new_entryEjS1_
   fun:_ZN10Dictionary9add_klassEP6Symbol6Handle11KlassHandle
   fun:_ZN16SystemDictionary17update_dictionaryEijij19instanceKlassHandle6HandleP6Thread
   fun:_ZN16SystemDictionary21define_instance_classE19instanceKlassHandleP6Thread
   fun:_ZN16SystemDictionary29find_or_define_instance_classEP6Symbol6Handle19instanceKlassHandleP6Thread
   fun:_ZN16SystemDictionary19resolve_from_streamEP6Symbol6HandleS2_P15ClassFileStreambP6Thread
   fun:_ZL23jvm_define_class_commonP7JNIEnv_PKcP8_jobjectPKaiS4_S2_hP6Thread
   fun:JVM_DefineClassWithSource
   fun:Java_java_lang_ClassLoader_defineClass1
}
{
   <insert_a_suppression_name_here>
   Memcheck:Leak
   match-leak-kinds: possible
   fun:malloc
   fun:_Znwj
   fun:_Znaj
   fun:_ZN18ObjectSynchronizer7omAllocEP6Thread
   fun:_ZN18ObjectSynchronizer7inflateEP6ThreadP7oopDesc
   fun:_ZN18ObjectSynchronizer4waitE6HandlexP6Thread
   fun:JVM_MonitorWait
   obj:*
   obj:*
   obj:*
   obj:*
   fun:_ZN9JavaCalls11call_helperEP9JavaValueP12methodHandleP17JavaCallArgumentsP6Thread
}
{
   <insert_a_suppression_name_here>
   Memcheck:Leak
   match-leak-kinds: reachable
   fun:malloc
   fun:zcalloc
   fun:inflateInit2_
   fun:Java_java_util_zip_Inflater_init
   obj:*
   obj:*
   obj:*
   obj:*
   obj:*
   obj:*
   obj:*
   obj:*
}
{
   <insert_a_suppression_name_here>
   Memcheck:Leak
   match-leak-kinds: reachable
   fun:malloc
   fun:_ZN2os6mallocEjtPh
   fun:_Z12AllocateHeapjtPhN17AllocFailStrategy13AllocFailEnumE
   fun:_ZN9HashtableIP6SymbolLt2304EE9new_entryEjS1_
   fun:_ZN11SymbolTable9basic_addE6Handle18constantPoolHandleiPPKcPiS5_PjP6Thread
   fun:_ZN11SymbolTable3addE6Handle18constantPoolHandleiPPKcPiS5_PjP6Thread
   fun:_ZN15ClassFileParser27parse_constant_pool_entriesE6Handle18constantPoolHandleiP6Thread
   fun:_ZN15ClassFileParser19parse_constant_poolE6HandleP6Thread
   fun:_ZN15ClassFileParser14parseClassFileEP6Symbol6HandleS2_11KlassHandleP13GrowableArrayIS2_ER13TempNewSymbolbP6Thread
   fun:_ZN16SystemDictionary19resolve_from_streamEP6Symbol6HandleS2_P15ClassFileStreambP6Thread
   fun:_ZL23jvm_define_class_commonP7JNIEnv_PKcP8_jobjectPKaiS4_S2_hP6Thread
   fun:JVM_DefineClassWithSource
}
{
   <insert_a_suppression_name_here>
   Memcheck:Leak
   match-leak-kinds: reachable
   fun:malloc
   fun:zcalloc
   fun:updatewindow
   fun:inflate
   fun:Java_java_util_zip_Inflater_inflateBytes
   obj:*
   obj:*
   obj:*
   obj:*
   obj:*
   obj:*
   obj:*
}
